target datalayout = "e-m:e-p270:32:32-p271:32:32-p272:64:64-i64:64-i128:128-f80:128-n8:16:32:64-S128"
target triple = "x86_64-pc-linux-gnu"

; Function Attrs: nounwind uwtable
define internal i32 @zueci_u_gb18030_4_sequential(i32 noundef %0, i32 noundef %1, ptr noundef %2) #0 {
  %4 = alloca i32, align 4
  %5 = alloca i32, align 4
  %6 = alloca ptr, align 8
  %7 = alloca i32, align 4
  store i32 %0, ptr %4, align 4
  store i32 %1, ptr %5, align 4
  store ptr %2, ptr %6, align 8
  %8 = load i32, ptr %4, align 4
  %9 = udiv i32 %8, 10
  store i32 %9, ptr %7, align 4
  %10 = load i32, ptr %4, align 4
  %11 = load i32, ptr %7, align 4
  %12 = mul i32 %11, 10
  %13 = sub i32 %10, %12
  %14 = add i32 %13, 48
  %15 = trunc i32 %14 to i8
  %16 = load ptr, ptr %6, align 8
  %17 = getelementptr inbounds i8, ptr %16, i64 3
  store i8 %15, ptr %17, align 1
  %18 = load i32, ptr %7, align 4
  store i32 %18, ptr %4, align 4
  %19 = load i32, ptr %4, align 4
  %20 = udiv i32 %19, 126
  store i32 %20, ptr %7, align 4
  %21 = load i32, ptr %4, align 4
  %22 = load i32, ptr %7, align 4
  %23 = mul i32 %22, 126
  %24 = sub i32 %21, %23
  %25 = add i32 %24, 129
  %26 = trunc i32 %25 to i8
  %27 = load ptr, ptr %6, align 8
  %28 = getelementptr inbounds i8, ptr %27, i64 2
  store i8 %26, ptr %28, align 1
  %29 = load i32, ptr %7, align 4
  store i32 %29, ptr %4, align 4
  %30 = load i32, ptr %4, align 4
  %31 = udiv i32 %30, 10
  store i32 %31, ptr %7, align 4
  %32 = load i32, ptr %7, align 4
  %33 = load i32, ptr %5, align 4
  %34 = add i32 %32, %33
  %35 = trunc i32 %34 to i8
  %36 = load ptr, ptr %6, align 8
  %37 = getelementptr inbounds i8, ptr %36, i64 0
  store i8 %35, ptr %37, align 1
  %38 = load i32, ptr %4, align 4
  %39 = load i32, ptr %7, align 4
  %40 = mul i32 %39, 10
  %41 = sub i32 %38, %40
  %42 = add i32 %41, 48
  %43 = trunc i32 %42 to i8
  %44 = load ptr, ptr %6, align 8
  %45 = getelementptr inbounds i8, ptr %44, i64 1
  store i8 %43, ptr %45, align 1
  ret i32 4
}

; Function Attrs: nounwind uwtable
define internal i32 @zueci_u_gb18030(i32 noundef %0, ptr noundef %1) #0 {
  %3 = alloca i32, align 4
  %4 = alloca i32, align 4
  %5 = alloca ptr, align 8
  %6 = alloca i32, align 4
  %7 = alloca i32, align 4
  %8 = alloca i32, align 4
  %9 = alloca i32, align 4
  %10 = alloca i32, align 4
  %11 = alloca i32, align 4
  %12 = alloca i32, align 4
  %13 = alloca i32, align 4
  %14 = alloca i16, align 2
  %15 = alloca i32, align 4
  store i32 %0, ptr %4, align 4
  store ptr %1, ptr %5, align 8
  %16 = load i32, ptr %4, align 4
  %17 = icmp ult i32 %16, 128
  br i1 %17, label %18, label %22

18:                                               ; preds = %2
  %19 = load i32, ptr %4, align 4
  %20 = trunc i32 %19 to i8
  %21 = load ptr, ptr %5, align 8
  store i8 %20, ptr %21, align 1
  store i32 1, ptr %3, align 4
  br label %243

22:                                               ; preds = %2
  %23 = load i32, ptr %4, align 4
  %24 = load ptr, ptr %5, align 8
  %25 = call i32 @zueci_u_gbk(i32 noundef %23, ptr noundef %24)
  %26 = icmp ne i32 %25, 0
  br i1 %26, label %27, label %28

27:                                               ; preds = %22
  store i32 2, ptr %3, align 4
  br label %243

28:                                               ; preds = %22
  %29 = load i32, ptr %4, align 4
  %30 = icmp uge i32 %29, 65536
  br i1 %30, label %31, label %84

31:                                               ; preds = %28
  %32 = load i32, ptr %4, align 4
  %33 = icmp eq i32 %32, 131207
  br i1 %33, label %34, label %39

34:                                               ; preds = %31
  %35 = load ptr, ptr %5, align 8
  %36 = getelementptr inbounds i8, ptr %35, i64 0
  store i8 -2, ptr %36, align 1
  %37 = load ptr, ptr %5, align 8
  %38 = getelementptr inbounds i8, ptr %37, i64 1
  store i8 81, ptr %38, align 1
  store i32 2, ptr %3, align 4
  br label %243

39:                                               ; preds = %31
  %40 = load i32, ptr %4, align 4
  %41 = icmp eq i32 %40, 131209
  br i1 %41, label %42, label %47

42:                                               ; preds = %39
  %43 = load ptr, ptr %5, align 8
  %44 = getelementptr inbounds i8, ptr %43, i64 0
  store i8 -2, ptr %44, align 1
  %45 = load ptr, ptr %5, align 8
  %46 = getelementptr inbounds i8, ptr %45, i64 1
  store i8 82, ptr %46, align 1
  store i32 2, ptr %3, align 4
  br label %243

47:                                               ; preds = %39
  %48 = load i32, ptr %4, align 4
  %49 = icmp eq i32 %48, 131276
  br i1 %49, label %50, label %55

50:                                               ; preds = %47
  %51 = load ptr, ptr %5, align 8
  %52 = getelementptr inbounds i8, ptr %51, i64 0
  store i8 -2, ptr %52, align 1
  %53 = load ptr, ptr %5, align 8
  %54 = getelementptr inbounds i8, ptr %53, i64 1
  store i8 83, ptr %54, align 1
  store i32 2, ptr %3, align 4
  br label %243

55:                                               ; preds = %47
  %56 = load i32, ptr %4, align 4
  %57 = icmp eq i32 %56, 136663
  br i1 %57, label %58, label %63

58:                                               ; preds = %55
  %59 = load ptr, ptr %5, align 8
  %60 = getelementptr inbounds i8, ptr %59, i64 0
  store i8 -2, ptr %60, align 1
  %61 = load ptr, ptr %5, align 8
  %62 = getelementptr inbounds i8, ptr %61, i64 1
  store i8 108, ptr %62, align 1
  store i32 2, ptr %3, align 4
  br label %243

63:                                               ; preds = %55
  %64 = load i32, ptr %4, align 4
  %65 = icmp eq i32 %64, 141711
  br i1 %65, label %66, label %71

66:                                               ; preds = %63
  %67 = load ptr, ptr %5, align 8
  %68 = getelementptr inbounds i8, ptr %67, i64 0
  store i8 -2, ptr %68, align 1
  %69 = load ptr, ptr %5, align 8
  %70 = getelementptr inbounds i8, ptr %69, i64 1
  store i8 118, ptr %70, align 1
  store i32 2, ptr %3, align 4
  br label %243

71:                                               ; preds = %63
  %72 = load i32, ptr %4, align 4
  %73 = icmp eq i32 %72, 147966
  br i1 %73, label %74, label %79

74:                                               ; preds = %71
  %75 = load ptr, ptr %5, align 8
  %76 = getelementptr inbounds i8, ptr %75, i64 0
  store i8 -2, ptr %76, align 1
  %77 = load ptr, ptr %5, align 8
  %78 = getelementptr inbounds i8, ptr %77, i64 1
  store i8 -111, ptr %78, align 1
  store i32 2, ptr %3, align 4
  br label %243

79:                                               ; preds = %71
  %80 = load i32, ptr %4, align 4
  %81 = sub i32 %80, 65536
  %82 = load ptr, ptr %5, align 8
  %83 = call i32 @zueci_u_gb18030_4_sequential(i32 noundef %81, i32 noundef 144, ptr noundef %82)
  store i32 %83, ptr %3, align 4
  br label %243

84:                                               ; preds = %28
  %85 = load i32, ptr %4, align 4
  %86 = icmp uge i32 %85, 57344
  br i1 %86, label %87, label %138

87:                                               ; preds = %84
  %88 = load i32, ptr %4, align 4
  %89 = icmp ule i32 %88, 59237
  br i1 %89, label %90, label %138

90:                                               ; preds = %87
  %91 = load i32, ptr %4, align 4
  %92 = icmp ule i32 %91, 58565
  br i1 %92, label %93, label %114

93:                                               ; preds = %90
  %94 = load i32, ptr %4, align 4
  %95 = sub i32 %94, 57344
  store i32 %95, ptr %6, align 4
  %96 = load i32, ptr %6, align 4
  %97 = udiv i32 %96, 94
  store i32 %97, ptr %7, align 4
  %98 = load i32, ptr %7, align 4
  %99 = load i32, ptr %7, align 4
  %100 = icmp ult i32 %99, 6
  %101 = select i1 %100, i32 170, i32 242
  %102 = add i32 %98, %101
  %103 = trunc i32 %102 to i8
  %104 = load ptr, ptr %5, align 8
  %105 = getelementptr inbounds i8, ptr %104, i64 0
  store i8 %103, ptr %105, align 1
  %106 = load i32, ptr %6, align 4
  %107 = load i32, ptr %7, align 4
  %108 = mul i32 %107, 94
  %109 = sub i32 %106, %108
  %110 = add i32 %109, 161
  %111 = trunc i32 %110 to i8
  %112 = load ptr, ptr %5, align 8
  %113 = getelementptr inbounds i8, ptr %112, i64 1
  store i8 %111, ptr %113, align 1
  br label %137

114:                                              ; preds = %90
  %115 = load i32, ptr %4, align 4
  %116 = sub i32 %115, 58566
  store i32 %116, ptr %6, align 4
  %117 = load i32, ptr %6, align 4
  %118 = udiv i32 %117, 96
  store i32 %118, ptr %7, align 4
  %119 = load i32, ptr %6, align 4
  %120 = load i32, ptr %7, align 4
  %121 = mul i32 %120, 96
  %122 = sub i32 %119, %121
  store i32 %122, ptr %10, align 4
  %123 = load i32, ptr %7, align 4
  %124 = add i32 %123, 161
  %125 = trunc i32 %124 to i8
  %126 = load ptr, ptr %5, align 8
  %127 = getelementptr inbounds i8, ptr %126, i64 0
  store i8 %125, ptr %127, align 1
  %128 = load i32, ptr %10, align 4
  %129 = add i32 %128, 64
  %130 = load i32, ptr %10, align 4
  %131 = icmp uge i32 %130, 63
  %132 = zext i1 %131 to i32
  %133 = add i32 %129, %132
  %134 = trunc i32 %133 to i8
  %135 = load ptr, ptr %5, align 8
  %136 = getelementptr inbounds i8, ptr %135, i64 1
  store i8 %134, ptr %136, align 1
  br label %137

137:                                              ; preds = %114, %93
  store i32 2, ptr %3, align 4
  br label %243

138:                                              ; preds = %87, %84
  %139 = load i32, ptr %4, align 4
  %140 = load i16, ptr @zueci_gb18030_2_u_u, align 16
  %141 = zext i16 %140 to i32
  %142 = icmp uge i32 %139, %141
  br i1 %142, label %143, label %197

143:                                              ; preds = %138
  %144 = load i32, ptr %4, align 4
  %145 = load i16, ptr getelementptr inbounds ([273 x i16], ptr @zueci_gb18030_2_u_u, i64 0, i64 272), align 16
  %146 = zext i16 %145 to i32
  %147 = icmp ule i32 %144, %146
  br i1 %147, label %148, label %197

148:                                              ; preds = %143
  store i32 0, ptr %11, align 4
  store i32 272, ptr %12, align 4
  br label %149

149:                                              ; preds = %195, %148
  %150 = load i32, ptr %11, align 4
  %151 = load i32, ptr %12, align 4
  %152 = icmp sle i32 %150, %151
  br i1 %152, label %153, label %196

153:                                              ; preds = %149
  %154 = load i32, ptr %11, align 4
  %155 = load i32, ptr %12, align 4
  %156 = add nsw i32 %154, %155
  %157 = ashr i32 %156, 1
  store i32 %157, ptr %13, align 4
  %158 = load i32, ptr %13, align 4
  %159 = sext i32 %158 to i64
  %160 = getelementptr inbounds [273 x i16], ptr @zueci_gb18030_2_u_u, i64 0, i64 %159
  %161 = load i16, ptr %160, align 2
  %162 = zext i16 %161 to i32
  %163 = load i32, ptr %4, align 4
  %164 = icmp ult i32 %162, %163
  br i1 %164, label %165, label %168

165:                                              ; preds = %153
  %166 = load i32, ptr %13, align 4
  %167 = add nsw i32 %166, 1
  store i32 %167, ptr %11, align 4
  br label %195

168:                                              ; preds = %153
  %169 = load i32, ptr %13, align 4
  %170 = sext i32 %169 to i64
  %171 = getelementptr inbounds [273 x i16], ptr @zueci_gb18030_2_u_u, i64 0, i64 %170
  %172 = load i16, ptr %171, align 2
  %173 = zext i16 %172 to i32
  %174 = load i32, ptr %4, align 4
  %175 = icmp ugt i32 %173, %174
  br i1 %175, label %176, label %179

176:                                              ; preds = %168
  %177 = load i32, ptr %13, align 4
  %178 = sub nsw i32 %177, 1
  store i32 %178, ptr %12, align 4
  br label %194

179:                                              ; preds = %168
  %180 = load i32, ptr %13, align 4
  %181 = sext i32 %180 to i64
  %182 = getelementptr inbounds [273 x i16], ptr @zueci_gb18030_2_u_mb, i64 0, i64 %181
  %183 = load i16, ptr %182, align 2
  store i16 %183, ptr %14, align 2
  %184 = load i16, ptr %14, align 2
  %185 = zext i16 %184 to i32
  %186 = ashr i32 %185, 8
  %187 = trunc i32 %186 to i8
  %188 = load ptr, ptr %5, align 8
  %189 = getelementptr inbounds i8, ptr %188, i64 0
  store i8 %187, ptr %189, align 1
  %190 = load i16, ptr %14, align 2
  %191 = trunc i16 %190 to i8
  %192 = load ptr, ptr %5, align 8
  %193 = getelementptr inbounds i8, ptr %192, i64 1
  store i8 %191, ptr %193, align 1
  store i32 2, ptr %3, align 4
  br label %243

194:                                              ; preds = %176
  br label %195

195:                                              ; preds = %194, %165
  br label %149, !llvm.loop !15

196:                                              ; preds = %149
  br label %197

197:                                              ; preds = %196, %143, %138
  %198 = load i32, ptr %4, align 4
  %199 = icmp eq i32 %198, 59335
  br i1 %199, label %200, label %209

200:                                              ; preds = %197
  %201 = load ptr, ptr %5, align 8
  %202 = getelementptr inbounds i8, ptr %201, i64 0
  store i8 -127, ptr %202, align 1
  %203 = load ptr, ptr %5, align 8
  %204 = getelementptr inbounds i8, ptr %203, i64 1
  store i8 53, ptr %204, align 1
  %205 = load ptr, ptr %5, align 8
  %206 = getelementptr inbounds i8, ptr %205, i64 2
  store i8 -12, ptr %206, align 1
  %207 = load ptr, ptr %5, align 8
  %208 = getelementptr inbounds i8, ptr %207, i64 3
  store i8 55, ptr %208, align 1
  store i32 4, ptr %3, align 4
  br label %243

209:                                              ; preds = %197
  store i32 0, ptr %8, align 4
  store i32 205, ptr %9, align 4
  br label %210

210:                                              ; preds = %231, %209
  %211 = load i32, ptr %8, align 4
  %212 = load i32, ptr %9, align 4
  %213 = icmp slt i32 %211, %212
  br i1 %213, label %214, label %232

214:                                              ; preds = %210
  %215 = load i32, ptr %8, align 4
  %216 = load i32, ptr %9, align 4
  %217 = add nsw i32 %215, %216
  %218 = ashr i32 %217, 1
  store i32 %218, ptr %15, align 4
  %219 = load i32, ptr %15, align 4
  %220 = sext i32 %219 to i64
  %221 = getelementptr inbounds [206 x i16], ptr @zueci_gb18030_4_u_e, i64 0, i64 %220
  %222 = load i16, ptr %221, align 2
  %223 = zext i16 %222 to i32
  %224 = load i32, ptr %4, align 4
  %225 = icmp ult i32 %223, %224
  br i1 %225, label %226, label %229

226:                                              ; preds = %214
  %227 = load i32, ptr %15, align 4
  %228 = add nsw i32 %227, 1
  store i32 %228, ptr %8, align 4
  br label %231

229:                                              ; preds = %214
  %230 = load i32, ptr %15, align 4
  store i32 %230, ptr %9, align 4
  br label %231

231:                                              ; preds = %229, %226
  br label %210, !llvm.loop !16

232:                                              ; preds = %210
  %233 = load i32, ptr %4, align 4
  %234 = load i32, ptr %8, align 4
  %235 = sext i32 %234 to i64
  %236 = getelementptr inbounds [206 x i16], ptr @zueci_gb18030_4_u_mb_o, i64 0, i64 %235
  %237 = load i16, ptr %236, align 2
  %238 = zext i16 %237 to i32
  %239 = sub i32 %233, %238
  %240 = sub i32 %239, 128
  %241 = load ptr, ptr %5, align 8
  %242 = call i32 @zueci_u_gb18030_4_sequential(i32 noundef %240, i32 noundef 129, ptr noundef %241)
  store i32 %242, ptr %3, align 4
  br label %243

243:                                              ; preds = %232, %200, %179, %137, %79, %74, %66, %58, %50, %42, %34, %27, %18
  %244 = load i32, ptr %3, align 4
  ret i32 %244
}