; Function Attrs: nofree norecurse nosync nounwind memory(argmem: readwrite) uwtable
define internal noundef i32 @zueci_u_gb18030(i32 noundef %0, ptr nocapture noundef writeonly %1) #3 {
  %3 = icmp ult i32 %0, 128
  br i1 %3, label %4, label %6

4:                                                ; preds = %2
  %5 = trunc nuw nsw i32 %0 to i8
  store i8 %5, ptr %1, align 1
  br label %126

6:                                                ; preds = %2
  %7 = tail call i32 @zueci_u_gbk(i32 noundef %0, ptr noundef %1), !range !15
  %.not = icmp eq i32 %7, 0
  br i1 %.not, label %8, label %126

8:                                                ; preds = %6
  %9 = icmp ugt i32 %0, 65535
  br i1 %9, label %10, label %42

10:                                               ; preds = %8
  switch i32 %0, label %23 [
    i32 131207, label %11
    i32 131209, label %13
    i32 131276, label %15
    i32 136663, label %17
    i32 141711, label %19
    i32 147966, label %21
  ]

11:                                               ; preds = %10
  store i8 -2, ptr %1, align 1
  %12 = getelementptr inbounds i8, ptr %1, i64 1
  store i8 81, ptr %12, align 1
  br label %126

13:                                               ; preds = %10
  store i8 -2, ptr %1, align 1
  %14 = getelementptr inbounds i8, ptr %1, i64 1
  store i8 82, ptr %14, align 1
  br label %126

15:                                               ; preds = %10
  store i8 -2, ptr %1, align 1
  %16 = getelementptr inbounds i8, ptr %1, i64 1
  store i8 83, ptr %16, align 1
  br label %126

17:                                               ; preds = %10
  store i8 -2, ptr %1, align 1
  %18 = getelementptr inbounds i8, ptr %1, i64 1
  store i8 108, ptr %18, align 1
  br label %126

19:                                               ; preds = %10
  store i8 -2, ptr %1, align 1
  %20 = getelementptr inbounds i8, ptr %1, i64 1
  store i8 118, ptr %20, align 1
  br label %126

21:                                               ; preds = %10
  store i8 -2, ptr %1, align 1
  %22 = getelementptr inbounds i8, ptr %1, i64 1
  store i8 -111, ptr %22, align 1
  br label %126

23:                                               ; preds = %10
  %24 = add i32 %0, -65536
  %25 = udiv i32 %24, 10
  %.neg.i = mul i32 %25, 246
  %26 = add i32 %.neg.i, %0
  %27 = trunc i32 %26 to i8
  %28 = add i8 %27, 48
  %29 = getelementptr inbounds i8, ptr %1, i64 3
  store i8 %28, ptr %29, align 1
  %30 = udiv i32 %24, 1260
  %.neg16.i = mul nuw nsw i32 %30, 130
  %31 = add nuw nsw i32 %.neg16.i, %25
  %32 = trunc i32 %31 to i8
  %33 = add i8 %32, -127
  %34 = getelementptr inbounds i8, ptr %1, i64 2
  store i8 %33, ptr %34, align 1
  %35 = udiv i32 %24, 12600
  %36 = trunc i32 %35 to i8
  %37 = add i8 %36, -112
  store i8 %37, ptr %1, align 1
  %.neg17.i = mul nuw nsw i32 %35, 246
  %38 = add nuw nsw i32 %.neg17.i, %30
  %39 = trunc i32 %38 to i8
  %40 = add i8 %39, 48
  %41 = getelementptr inbounds i8, ptr %1, i64 1
  store i8 %40, ptr %41, align 1
  br label %126

42:                                               ; preds = %8
  %43 = add nsw i32 %0, -57344
  %or.cond = icmp ult i32 %43, 1894
  br i1 %or.cond, label %44, label %68

44:                                               ; preds = %42
  %45 = icmp ult i32 %0, 58566
  br i1 %45, label %46, label %56

46:                                               ; preds = %44
  %.lhs.trunc = trunc nuw i32 %43 to i16
  %47 = udiv i16 %.lhs.trunc, 94
  %48 = icmp ult i32 %43, 564
  %49 = select i1 %48, i16 170, i16 242
  %50 = add nuw nsw i16 %49, %47
  %51 = trunc i16 %50 to i8
  store i8 %51, ptr %1, align 1
  %narrow = mul nuw nsw i16 %47, 162
  %.neg91 = zext nneg i16 %narrow to i32
  %52 = add nuw nsw i32 %.neg91, %0
  %53 = trunc i32 %52 to i8
  %54 = add i8 %53, -95
  %55 = getelementptr inbounds i8, ptr %1, i64 1
  store i8 %54, ptr %55, align 1
  br label %126

56:                                               ; preds = %44
  %57 = add nsw i32 %0, -58566
  %.lhs.trunc96 = trunc i32 %57 to i16
  %58 = udiv i16 %.lhs.trunc96, 96
  %.zext97 = zext nneg i16 %58 to i32
  %.neg = mul nsw i32 %.zext97, -96
  %59 = add nsw i32 %.neg, %57
  %60 = trunc i16 %58 to i8
  %61 = add nuw nsw i8 %60, -95
  store i8 %61, ptr %1, align 1
  %62 = add nsw i32 %59, 64
  %63 = icmp ugt i32 %59, 62
  %64 = zext i1 %63 to i32
  %65 = add nsw i32 %62, %64
  %66 = trunc i32 %65 to i8
  %67 = getelementptr inbounds i8, ptr %1, i64 1
  store i8 %66, ptr %67, align 1
  br label %126

68:                                               ; preds = %42
  %69 = add nsw i32 %0, -505
  %or.cond92 = icmp ult i32 %69, 64545
  br i1 %or.cond92, label %.preheader98, label %.loopexit

.preheader98:                                     ; preds = %68, %90
  %.080100 = phi i32 [ %.1, %90 ], [ 272, %68 ]
  %.08199 = phi i32 [ %.182, %90 ], [ 0, %68 ]
  %70 = add nsw i32 %.080100, %.08199
  %71 = ashr i32 %70, 1
  %72 = sext i32 %71 to i64
  %73 = getelementptr inbounds [273 x i16], ptr @zueci_gb18030_2_u_u, i64 0, i64 %72
  %74 = load i16, ptr %73, align 2
  %75 = zext i16 %74 to i32
  %76 = icmp ult i32 %75, %0
  br i1 %76, label %77, label %79

77:                                               ; preds = %.preheader98
  %78 = add nsw i32 %71, 1
  br label %90

79:                                               ; preds = %.preheader98
  %80 = icmp ugt i32 %75, %0
  br i1 %80, label %81, label %83

81:                                               ; preds = %79
  %82 = add nsw i32 %71, -1
  br label %90

83:                                               ; preds = %79
  %84 = getelementptr inbounds [273 x i16], ptr @zueci_gb18030_2_u_mb, i64 0, i64 %72
  %85 = load i16, ptr %84, align 2
  %86 = lshr i16 %85, 8
  %87 = trunc nuw i16 %86 to i8
  store i8 %87, ptr %1, align 1
  %88 = trunc i16 %85 to i8
  %89 = getelementptr inbounds i8, ptr %1, i64 1
  store i8 %88, ptr %89, align 1
  br label %126

90:                                               ; preds = %81, %77
  %.182 = phi i32 [ %78, %77 ], [ %.08199, %81 ]
  %.1 = phi i32 [ %.080100, %77 ], [ %82, %81 ]
  %.not90 = icmp sgt i32 %.182, %.1
  br i1 %.not90, label %.loopexit, label %.preheader98, !llvm.loop !17

.loopexit:                                        ; preds = %90, %68
  %91 = icmp eq i32 %0, 59335
  br i1 %91, label %92, label %.preheader

92:                                               ; preds = %.loopexit
  store <4 x i8> <i8 -127, i8 53, i8 -12, i8 55>, ptr %1, align 1
  br label %126

.preheader:                                       ; preds = %.loopexit, %.preheader
  %.083102 = phi i32 [ %.184, %.preheader ], [ 0, %.loopexit ]
  %.085101 = phi i32 [ %.186, %.preheader ], [ 205, %.loopexit ]
  %93 = add nsw i32 %.083102, %.085101
  %94 = ashr i32 %93, 1
  %95 = sext i32 %94 to i64
  %96 = getelementptr inbounds [206 x i16], ptr @zueci_gb18030_4_u_e, i64 0, i64 %95
  %97 = load i16, ptr %96, align 2
  %98 = zext i16 %97 to i32
  %99 = icmp ult i32 %98, %0
  %100 = add nsw i32 %94, 1
  %.186 = select i1 %99, i32 %.085101, i32 %94
  %.184 = select i1 %99, i32 %100, i32 %.083102
  %101 = icmp slt i32 %.184, %.186
  br i1 %101, label %.preheader, label %102, !llvm.loop !18

102:                                              ; preds = %.preheader
  %103 = sext i32 %.184 to i64
  %104 = getelementptr inbounds [206 x i16], ptr @zueci_gb18030_4_u_mb_o, i64 0, i64 %103
  %105 = load i16, ptr %104, align 2
  %106 = zext i16 %105 to i32
  %107 = sub nsw i32 %0, %106
  %108 = add nsw i32 %107, -128
  %109 = udiv i32 %108, 10
  %.neg.i93 = mul i32 %109, 246
  %110 = add i32 %.neg.i93, %108
  %111 = trunc i32 %110 to i8
  %112 = add i8 %111, 48
  %113 = getelementptr inbounds i8, ptr %1, i64 3
  store i8 %112, ptr %113, align 1
  %114 = udiv i32 %108, 1260
  %.neg16.i94 = mul nuw nsw i32 %114, 130
  %115 = add nuw nsw i32 %.neg16.i94, %109
  %116 = trunc i32 %115 to i8
  %117 = add i8 %116, -127
  %118 = getelementptr inbounds i8, ptr %1, i64 2
  store i8 %117, ptr %118, align 1
  %119 = udiv i32 %108, 12600
  %120 = trunc i32 %119 to i8
  %121 = add i8 %120, -127
  store i8 %121, ptr %1, align 1
  %.neg17.i95 = mul nuw nsw i32 %119, 246
  %122 = add nuw nsw i32 %.neg17.i95, %114
  %123 = trunc i32 %122 to i8
  %124 = add i8 %123, 48
  %125 = getelementptr inbounds i8, ptr %1, i64 1
  store i8 %124, ptr %125, align 1
  br label %126

126:                                              ; preds = %46, %56, %6, %102, %92, %83, %23, %21, %19, %17, %15, %13, %11, %4
  %.0 = phi i32 [ 1, %4 ], [ 2, %11 ], [ 2, %13 ], [ 2, %15 ], [ 2, %17 ], [ 2, %19 ], [ 2, %21 ], [ 4, %23 ], [ 2, %83 ], [ 4, %92 ], [ 4, %102 ], [ 2, %6 ], [ 2, %56 ], [ 2, %46 ]
  ret i32 %.0
}